target datalayout = "e-m:e-p270:32:32-p271:32:32-p272:64:64-i64:64-i128:128-f80:128-n8:16:32:64-S128"
target triple = "x86_64-pc-linux-gnu"

%"class.Ipopt::Ma27TSolverInterface" = type <{ %"class.Ipopt::SparseSymLinearSolverInterface.base", [7 x i8], %"class.Ipopt::SmartPtr", ptr, ptr, ptr, ptr, i32, i32, i32, i8, i8, i8, i8, double, double, double, double, double, i8, i8, i8, i8, [30 x i32], [4 x i8], [5 x double], i32, [4 x i8], ptr, ptr, i32, i32, i32, [4 x i8], ptr, i8, i8, [6 x i8] }>
%"class.Ipopt::SparseSymLinearSolverInterface.base" = type { %"class.Ipopt::AlgorithmStrategyObject.base" }
%"class.Ipopt::AlgorithmStrategyObject.base" = type <{ %"class.Ipopt::ReferencedObject.base", [4 x i8], %"class.Ipopt::SmartPtr.0", %"class.Ipopt::SmartPtr.1", %"class.Ipopt::SmartPtr.2", %"class.Ipopt::SmartPtr.3", i8 }>
%"class.Ipopt::ReferencedObject.base" = type <{ ptr, i32 }>
%"class.Ipopt::SmartPtr.0" = type { ptr }
%"class.Ipopt::SmartPtr.1" = type { ptr }
%"class.Ipopt::SmartPtr.2" = type { ptr }
%"class.Ipopt::SmartPtr.3" = type { ptr }
%"class.Ipopt::SmartPtr" = type { ptr }

; Function Attrs: mustprogress uwtable
define noundef ptr @_ZN5Ipopt20Ma27TSolverInterface17GetValuesArrayPtrEv(ptr noundef nonnull align 8 dereferenceable(370) %0) unnamed_addr #4 align 2 {
  %2 = alloca ptr, align 8
  store ptr %0, ptr %2, align 8
  %3 = load ptr, ptr %2, align 8
  %4 = getelementptr inbounds %"class.Ipopt::Ma27TSolverInterface", ptr %3, i32 0, i32 35
  %5 = load i8, ptr %4, align 8
  %6 = trunc i8 %5 to i1
  br i1 %6, label %7, label %23

7:                                                ; preds = %1
  %8 = getelementptr inbounds %"class.Ipopt::Ma27TSolverInterface", ptr %3, i32 0, i32 34
  %9 = load ptr, ptr %8, align 8
  %10 = icmp eq ptr %9, null
  br i1 %10, label %12, label %11

11:                                               ; preds = %7
  call void @_ZdaPv(ptr noundef %9) #13
  br label %12

12:                                               ; preds = %11, %7
  %13 = getelementptr inbounds %"class.Ipopt::Ma27TSolverInterface", ptr %3, i32 0, i32 34
  store ptr null, ptr %13, align 8
  %14 = getelementptr inbounds %"class.Ipopt::Ma27TSolverInterface", ptr %3, i32 0, i32 8
  %15 = load i32, ptr %14, align 4
  %16 = sext i32 %15 to i64
  %17 = call { i64, i1 } @llvm.umul.with.overflow.i64(i64 %16, i64 8)
  %18 = extractvalue { i64, i1 } %17, 1
  %19 = extractvalue { i64, i1 } %17, 0
  %20 = select i1 %18, i64 -1, i64 %19
  %21 = call noalias noundef nonnull ptr @_Znam(i64 noundef %20) #15
  %22 = getelementptr inbounds %"class.Ipopt::Ma27TSolverInterface", ptr %3, i32 0, i32 34
  store ptr %21, ptr %22, align 8
  br label %23

23:                                               ; preds = %12, %1
  %24 = getelementptr inbounds %"class.Ipopt::Ma27TSolverInterface", ptr %3, i32 0, i32 34
  %25 = load ptr, ptr %24, align 8
  ret ptr %25
}