; Function Attrs: mustprogress uwtable
define noundef ptr @_ZN5Ipopt20Ma27TSolverInterface17GetValuesArrayPtrEv(ptr nocapture noundef nonnull align 8 dereferenceable(370) %0) unnamed_addr #3 align 2 {
  %2 = getelementptr inbounds i8, ptr %0, i64 368
  %3 = load i8, ptr %2, align 8
  %4 = and i8 %3, 1
  %.not = icmp eq i8 %4, 0
  %.phi.trans.insert = getelementptr inbounds i8, ptr %0, i64 360
  %.pre = load ptr, ptr %.phi.trans.insert, align 8
  br i1 %.not, label %._crit_edge, label %5

5:                                                ; preds = %1
  %6 = icmp eq ptr %.pre, null
  br i1 %6, label %8, label %7

7:                                                ; preds = %5
  tail call void @_ZdaPv(ptr noundef nonnull %.pre) #19
  br label %8

8:                                                ; preds = %7, %5
  store ptr null, ptr %.phi.trans.insert, align 8
  %9 = getelementptr inbounds i8, ptr %0, i64 100
  %10 = load i32, ptr %9, align 4
  %11 = sext i32 %10 to i64
  %12 = icmp slt i32 %10, 0
  %13 = shl nsw i64 %11, 3
  %14 = select i1 %12, i64 -1, i64 %13
  %15 = tail call noalias noundef nonnull ptr @_Znam(i64 noundef %14) #21
  store ptr %15, ptr %.phi.trans.insert, align 8
  br label %._crit_edge

._crit_edge:                                      ; preds = %1, %8
  %16 = phi ptr [ %15, %8 ], [ %.pre, %1 ]
  ret ptr %16
}